target datalayout = "e-m:e-p270:32:32-p271:32:32-p272:64:64-i64:64-i128:128-f80:128-n8:16:32:64-S128"
target triple = "x86_64-pc-linux-gnu"

; Function Attrs: inlinehint nounwind uwtable
define internal i32 @ZSTD_countLeadingZeros32(i32 noundef %0) #2 {
  %2 = alloca i32, align 4
  store i32 %0, ptr %2, align 4, !tbaa !53
  %3 = load i32, ptr %2, align 4, !tbaa !53
  %4 = call i32 @llvm.ctlz.i32(i32 %3, i1 true)
  ret i32 %4
}

; Function Attrs: inlinehint nounwind uwtable
define internal i32 @ZSTD_countLeadingZeros64(i64 noundef %0) #2 {
  %2 = alloca i64, align 8
  store i64 %0, ptr %2, align 8, !tbaa !3
  %3 = load i64, ptr %2, align 8, !tbaa !3
  %4 = call i64 @llvm.ctlz.i64(i64 %3, i1 true)
  %5 = trunc i64 %4 to i32
  ret i32 %5
}

; Function Attrs: inlinehint nounwind uwtable
define internal i32 @ZSTD_countTrailingZeros32(i32 noundef %0) #2 {
  %2 = alloca i32, align 4
  store i32 %0, ptr %2, align 4, !tbaa !53
  %3 = load i32, ptr %2, align 4, !tbaa !53
  %4 = call i32 @llvm.cttz.i32(i32 %3, i1 true)
  ret i32 %4
}

; Function Attrs: inlinehint nounwind uwtable
define internal i32 @ZSTD_countTrailingZeros64(i64 noundef %0) #2 {
  %2 = alloca i64, align 8
  store i64 %0, ptr %2, align 8, !tbaa !3
  %3 = load i64, ptr %2, align 8, !tbaa !3
  %4 = call i64 @llvm.cttz.i64(i64 %3, i1 true)
  %5 = trunc i64 %4 to i32
  ret i32 %5
}

; Function Attrs: inlinehint nounwind uwtable
define internal i32 @MEM_isLittleEndian() #2 {
  ret i32 1
}

; Function Attrs: inlinehint nounwind uwtable
define internal zeroext i16 @MEM_read16(ptr noundef %0) #2 {
  %2 = alloca ptr, align 8
  store ptr %0, ptr %2, align 8, !tbaa !15
  %3 = load ptr, ptr %2, align 8, !tbaa !15
  %4 = load i16, ptr %3, align 1, !tbaa !255
  ret i16 %4
}

; Function Attrs: inlinehint nounwind uwtable
define internal i32 @MEM_read32(ptr noundef %0) #2 {
  %2 = alloca ptr, align 8
  store ptr %0, ptr %2, align 8, !tbaa !15
  %3 = load ptr, ptr %2, align 8, !tbaa !15
  %4 = load i32, ptr %3, align 1, !tbaa !53
  ret i32 %4
}

; Function Attrs: inlinehint nounwind uwtable
define internal i32 @MEM_64bits() #2 {
  ret i32 1
}

; Function Attrs: inlinehint nounwind uwtable
define internal i32 @ZSTD_NbCommonBytes(i64 noundef %0) #2 {
  %2 = alloca i32, align 4
  %3 = alloca i64, align 8
  store i64 %0, ptr %3, align 8, !tbaa !3
  %4 = call i32 @MEM_isLittleEndian()
  %5 = icmp ne i32 %4, 0
  br i1 %5, label %6, label %18

6:                                                ; preds = %1
  %7 = call i32 @MEM_64bits()
  %8 = icmp ne i32 %7, 0
  br i1 %8, label %9, label %13

9:                                                ; preds = %6
  %10 = load i64, ptr %3, align 8, !tbaa !3
  %11 = call i32 @ZSTD_countTrailingZeros64(i64 noundef %10)
  %12 = lshr i32 %11, 3
  store i32 %12, ptr %2, align 4
  br label %30

13:                                               ; preds = %6
  %14 = load i64, ptr %3, align 8, !tbaa !3
  %15 = trunc i64 %14 to i32
  %16 = call i32 @ZSTD_countTrailingZeros32(i32 noundef %15)
  %17 = lshr i32 %16, 3
  store i32 %17, ptr %2, align 4
  br label %30

18:                                               ; preds = %1
  %19 = call i32 @MEM_64bits()
  %20 = icmp ne i32 %19, 0
  br i1 %20, label %21, label %25

21:                                               ; preds = %18
  %22 = load i64, ptr %3, align 8, !tbaa !3
  %23 = call i32 @ZSTD_countLeadingZeros64(i64 noundef %22)
  %24 = lshr i32 %23, 3
  store i32 %24, ptr %2, align 4
  br label %30

25:                                               ; preds = %18
  %26 = load i64, ptr %3, align 8, !tbaa !3
  %27 = trunc i64 %26 to i32
  %28 = call i32 @ZSTD_countLeadingZeros32(i32 noundef %27)
  %29 = lshr i32 %28, 3
  store i32 %29, ptr %2, align 4
  br label %30

30:                                               ; preds = %25, %21, %13, %9
  %31 = load i32, ptr %2, align 4
  ret i32 %31
}

; Function Attrs: inlinehint nounwind uwtable
define internal i64 @MEM_readST(ptr noundef %0) #2 {
  %2 = alloca ptr, align 8
  store ptr %0, ptr %2, align 8, !tbaa !15
  %3 = load ptr, ptr %2, align 8, !tbaa !15
  %4 = load i64, ptr %3, align 1, !tbaa !3
  ret i64 %4
}

; Function Attrs: inlinehint nounwind uwtable
define internal i64 @ZSTD_count(ptr noundef %0, ptr noundef %1, ptr noundef %2) #2 {
  %4 = alloca i64, align 8
  %5 = alloca ptr, align 8
  %6 = alloca ptr, align 8
  %7 = alloca ptr, align 8
  %8 = alloca ptr, align 8
  %9 = alloca ptr, align 8
  %10 = alloca i64, align 8
  %11 = alloca i32, align 4
  %12 = alloca i64, align 8
  store ptr %0, ptr %5, align 8, !tbaa !198
  store ptr %1, ptr %6, align 8, !tbaa !198
  store ptr %2, ptr %7, align 8, !tbaa !198
  call void @llvm.lifetime.start.p0(i64 8, ptr %8) #15
  %13 = load ptr, ptr %5, align 8, !tbaa !198
  store ptr %13, ptr %8, align 8, !tbaa !198
  call void @llvm.lifetime.start.p0(i64 8, ptr %9) #15
  %14 = load ptr, ptr %7, align 8, !tbaa !198
  %15 = getelementptr inbounds i8, ptr %14, i64 -7
  store ptr %15, ptr %9, align 8, !tbaa !198
  %16 = load ptr, ptr %5, align 8, !tbaa !198
  %17 = load ptr, ptr %9, align 8, !tbaa !198
  %18 = icmp ult ptr %16, %17
  br i1 %18, label %19, label %70

19:                                               ; preds = %3
  call void @llvm.lifetime.start.p0(i64 8, ptr %10) #15
  %20 = load ptr, ptr %6, align 8, !tbaa !198
  %21 = call i64 @MEM_readST(ptr noundef %20)
  %22 = load ptr, ptr %5, align 8, !tbaa !198
  %23 = call i64 @MEM_readST(ptr noundef %22)
  %24 = xor i64 %21, %23
  store i64 %24, ptr %10, align 8, !tbaa !3
  %25 = load i64, ptr %10, align 8, !tbaa !3
  %26 = icmp ne i64 %25, 0
  br i1 %26, label %27, label %31

27:                                               ; preds = %19
  %28 = load i64, ptr %10, align 8, !tbaa !3
  %29 = call i32 @ZSTD_NbCommonBytes(i64 noundef %28)
  %30 = zext i32 %29 to i64
  store i64 %30, ptr %4, align 8
  store i32 1, ptr %11, align 4
  br label %32

31:                                               ; preds = %19
  store i32 0, ptr %11, align 4
  br label %32

32:                                               ; preds = %31, %27
  call void @llvm.lifetime.end.p0(i64 8, ptr %10) #15
  %33 = load i32, ptr %11, align 4
  switch i32 %33, label %128 [
    i32 0, label %34
  ]

34:                                               ; preds = %32
  %35 = load ptr, ptr %5, align 8, !tbaa !198
  %36 = getelementptr inbounds nuw i8, ptr %35, i64 8
  store ptr %36, ptr %5, align 8, !tbaa !198
  %37 = load ptr, ptr %6, align 8, !tbaa !198
  %38 = getelementptr inbounds nuw i8, ptr %37, i64 8
  store ptr %38, ptr %6, align 8, !tbaa !198
  br label %39

39:                                               ; preds = %67, %34
  %40 = load ptr, ptr %5, align 8, !tbaa !198
  %41 = load ptr, ptr %9, align 8, !tbaa !198
  %42 = icmp ult ptr %40, %41
  br i1 %42, label %43, label %69

43:                                               ; preds = %39
  call void @llvm.lifetime.start.p0(i64 8, ptr %12) #15
  %44 = load ptr, ptr %6, align 8, !tbaa !198
  %45 = call i64 @MEM_readST(ptr noundef %44)
  %46 = load ptr, ptr %5, align 8, !tbaa !198
  %47 = call i64 @MEM_readST(ptr noundef %46)
  %48 = xor i64 %45, %47
  store i64 %48, ptr %12, align 8, !tbaa !3
  %49 = load i64, ptr %12, align 8, !tbaa !3
  %50 = icmp ne i64 %49, 0
  br i1 %50, label %56, label %51

51:                                               ; preds = %43
  %52 = load ptr, ptr %5, align 8, !tbaa !198
  %53 = getelementptr inbounds nuw i8, ptr %52, i64 8
  store ptr %53, ptr %5, align 8, !tbaa !198
  %54 = load ptr, ptr %6, align 8, !tbaa !198
  %55 = getelementptr inbounds nuw i8, ptr %54, i64 8
  store ptr %55, ptr %6, align 8, !tbaa !198
  store i32 2, ptr %11, align 4
  br label %67, !llvm.loop !412

56:                                               ; preds = %43
  %57 = load i64, ptr %12, align 8, !tbaa !3
  %58 = call i32 @ZSTD_NbCommonBytes(i64 noundef %57)
  %59 = load ptr, ptr %5, align 8, !tbaa !198
  %60 = zext i32 %58 to i64
  %61 = getelementptr inbounds nuw i8, ptr %59, i64 %60
  store ptr %61, ptr %5, align 8, !tbaa !198
  %62 = load ptr, ptr %5, align 8, !tbaa !198
  %63 = load ptr, ptr %8, align 8, !tbaa !198
  %64 = ptrtoint ptr %62 to i64
  %65 = ptrtoint ptr %63 to i64
  %66 = sub i64 %64, %65
  store i64 %66, ptr %4, align 8
  store i32 1, ptr %11, align 4
  br label %67

67:                                               ; preds = %56, %51
  call void @llvm.lifetime.end.p0(i64 8, ptr %12) #15
  %68 = load i32, ptr %11, align 4
  switch i32 %68, label %128 [
    i32 2, label %39
  ]

69:                                               ; preds = %39
  br label %70

70:                                               ; preds = %69, %3
  %71 = call i32 @MEM_64bits()
  %72 = icmp ne i32 %71, 0
  br i1 %72, label %73, label %89

73:                                               ; preds = %70
  %74 = load ptr, ptr %5, align 8, !tbaa !198
  %75 = load ptr, ptr %7, align 8, !tbaa !198
  %76 = getelementptr inbounds i8, ptr %75, i64 -3
  %77 = icmp ult ptr %74, %76
  br i1 %77, label %78, label %89

78:                                               ; preds = %73
  %79 = load ptr, ptr %6, align 8, !tbaa !198
  %80 = call i32 @MEM_read32(ptr noundef %79)
  %81 = load ptr, ptr %5, align 8, !tbaa !198
  %82 = call i32 @MEM_read32(ptr noundef %81)
  %83 = icmp eq i32 %80, %82
  br i1 %83, label %84, label %89

84:                                               ; preds = %78
  %85 = load ptr, ptr %5, align 8, !tbaa !198
  %86 = getelementptr inbounds i8, ptr %85, i64 4
  store ptr %86, ptr %5, align 8, !tbaa !198
  %87 = load ptr, ptr %6, align 8, !tbaa !198
  %88 = getelementptr inbounds i8, ptr %87, i64 4
  store ptr %88, ptr %6, align 8, !tbaa !198
  br label %89

89:                                               ; preds = %84, %78, %73, %70
  %90 = load ptr, ptr %5, align 8, !tbaa !198
  %91 = load ptr, ptr %7, align 8, !tbaa !198
  %92 = getelementptr inbounds i8, ptr %91, i64 -1
  %93 = icmp ult ptr %90, %92
  br i1 %93, label %94, label %107

94:                                               ; preds = %89
  %95 = load ptr, ptr %6, align 8, !tbaa !198
  %96 = call zeroext i16 @MEM_read16(ptr noundef %95)
  %97 = zext i16 %96 to i32
  %98 = load ptr, ptr %5, align 8, !tbaa !198
  %99 = call zeroext i16 @MEM_read16(ptr noundef %98)
  %100 = zext i16 %99 to i32
  %101 = icmp eq i32 %97, %100
  br i1 %101, label %102, label %107

102:                                              ; preds = %94
  %103 = load ptr, ptr %5, align 8, !tbaa !198
  %104 = getelementptr inbounds i8, ptr %103, i64 2
  store ptr %104, ptr %5, align 8, !tbaa !198
  %105 = load ptr, ptr %6, align 8, !tbaa !198
  %106 = getelementptr inbounds i8, ptr %105, i64 2
  store ptr %106, ptr %6, align 8, !tbaa !198
  br label %107

107:                                              ; preds = %102, %94, %89
  %108 = load ptr, ptr %5, align 8, !tbaa !198
  %109 = load ptr, ptr %7, align 8, !tbaa !198
  %110 = icmp ult ptr %108, %109
  br i1 %110, label %111, label %122

111:                                              ; preds = %107
  %112 = load ptr, ptr %6, align 8, !tbaa !198
  %113 = load i8, ptr %112, align 1, !tbaa !65
  %114 = zext i8 %113 to i32
  %115 = load ptr, ptr %5, align 8, !tbaa !198
  %116 = load i8, ptr %115, align 1, !tbaa !65
  %117 = zext i8 %116 to i32
  %118 = icmp eq i32 %114, %117
  br i1 %118, label %119, label %122

119:                                              ; preds = %111
  %120 = load ptr, ptr %5, align 8, !tbaa !198
  %121 = getelementptr inbounds nuw i8, ptr %120, i32 1
  store ptr %121, ptr %5, align 8, !tbaa !198
  br label %122

122:                                              ; preds = %119, %111, %107
  %123 = load ptr, ptr %5, align 8, !tbaa !198
  %124 = load ptr, ptr %8, align 8, !tbaa !198
  %125 = ptrtoint ptr %123 to i64
  %126 = ptrtoint ptr %124 to i64
  %127 = sub i64 %125, %126
  store i64 %127, ptr %4, align 8
  store i32 1, ptr %11, align 4
  br label %128

128:                                              ; preds = %122, %67, %32
  call void @llvm.lifetime.end.p0(i64 8, ptr %9) #15
  call void @llvm.lifetime.end.p0(i64 8, ptr %8) #15
  %129 = load i64, ptr %4, align 8
  ret i64 %129
}

; Function Attrs: nounwind uwtable
define internal i32 @ZSTD_isRLE(ptr noundef %0, i64 noundef %1) #0 {
  %3 = alloca i32, align 4
  %4 = alloca ptr, align 8
  %5 = alloca i64, align 8
  %6 = alloca ptr, align 8
  %7 = alloca i8, align 1
  %8 = alloca i64, align 8
  %9 = alloca i64, align 8
  %10 = alloca i64, align 8
  %11 = alloca i64, align 8
  %12 = alloca i64, align 8
  %13 = alloca i32, align 4
  %14 = alloca i64, align 8
  store ptr %0, ptr %4, align 8, !tbaa !198
  store i64 %1, ptr %5, align 8, !tbaa !3
  call void @llvm.lifetime.start.p0(i64 8, ptr %6) #15
  %15 = load ptr, ptr %4, align 8, !tbaa !198
  store ptr %15, ptr %6, align 8, !tbaa !198
  call void @llvm.lifetime.start.p0(i64 1, ptr %7) #15
  %16 = load ptr, ptr %6, align 8, !tbaa !198
  %17 = getelementptr inbounds i8, ptr %16, i64 0
  %18 = load i8, ptr %17, align 1, !tbaa !65
  store i8 %18, ptr %7, align 1, !tbaa !65
  call void @llvm.lifetime.start.p0(i64 8, ptr %8) #15
  %19 = load i8, ptr %7, align 1, !tbaa !65
  %20 = zext i8 %19 to i64
  %21 = mul i64 %20, 72340172838076673
  store i64 %21, ptr %8, align 8, !tbaa !3
  call void @llvm.lifetime.start.p0(i64 8, ptr %9) #15
  store i64 32, ptr %9, align 8, !tbaa !3
  call void @llvm.lifetime.start.p0(i64 8, ptr %10) #15
  store i64 31, ptr %10, align 8, !tbaa !3
  call void @llvm.lifetime.start.p0(i64 8, ptr %11) #15
  %22 = load i64, ptr %5, align 8, !tbaa !3
  %23 = and i64 %22, 31
  store i64 %23, ptr %11, align 8, !tbaa !3
  call void @llvm.lifetime.start.p0(i64 8, ptr %12) #15
  %24 = load i64, ptr %5, align 8, !tbaa !3
  %25 = icmp eq i64 %24, 1
  br i1 %25, label %26, label %27

26:                                               ; preds = %2
  store i32 1, ptr %3, align 4
  store i32 1, ptr %13, align 4
  br label %74

27:                                               ; preds = %2
  %28 = load i64, ptr %11, align 8, !tbaa !3
  %29 = icmp ne i64 %28, 0
  br i1 %29, label %30, label %42

30:                                               ; preds = %27
  %31 = load ptr, ptr %6, align 8, !tbaa !198
  %32 = getelementptr inbounds i8, ptr %31, i64 1
  %33 = load ptr, ptr %6, align 8, !tbaa !198
  %34 = load ptr, ptr %6, align 8, !tbaa !198
  %35 = load i64, ptr %11, align 8, !tbaa !3
  %36 = getelementptr inbounds nuw i8, ptr %34, i64 %35
  %37 = call i64 @ZSTD_count(ptr noundef %32, ptr noundef %33, ptr noundef %36)
  %38 = load i64, ptr %11, align 8, !tbaa !3
  %39 = sub i64 %38, 1
  %40 = icmp ne i64 %37, %39
  br i1 %40, label %41, label %42

41:                                               ; preds = %30
  store i32 0, ptr %3, align 4
  store i32 1, ptr %13, align 4
  br label %74

42:                                               ; preds = %30, %27
  %43 = load i64, ptr %11, align 8, !tbaa !3
  store i64 %43, ptr %12, align 8, !tbaa !3
  br label %44

44:                                               ; preds = %70, %42
  %45 = load i64, ptr %12, align 8, !tbaa !3
  %46 = load i64, ptr %5, align 8, !tbaa !3
  %47 = icmp ne i64 %45, %46
  br i1 %47, label %48, label %73

48:                                               ; preds = %44
  call void @llvm.lifetime.start.p0(i64 8, ptr %14) #15
  store i64 0, ptr %14, align 8, !tbaa !3
  br label %49

49:                                               ; preds = %63, %48
  %50 = load i64, ptr %14, align 8, !tbaa !3
  %51 = icmp ult i64 %50, 32
  br i1 %51, label %52, label %66

52:                                               ; preds = %49
  %53 = load ptr, ptr %6, align 8, !tbaa !198
  %54 = load i64, ptr %12, align 8, !tbaa !3
  %55 = getelementptr inbounds nuw i8, ptr %53, i64 %54
  %56 = load i64, ptr %14, align 8, !tbaa !3
  %57 = getelementptr inbounds nuw i8, ptr %55, i64 %56
  %58 = call i64 @MEM_readST(ptr noundef %57)
  %59 = load i64, ptr %8, align 8, !tbaa !3
  %60 = icmp ne i64 %58, %59
  br i1 %60, label %61, label %62

61:                                               ; preds = %52
  store i32 0, ptr %3, align 4
  store i32 1, ptr %13, align 4
  br label %67

62:                                               ; preds = %52
  br label %63

63:                                               ; preds = %62
  %64 = load i64, ptr %14, align 8, !tbaa !3
  %65 = add i64 %64, 8
  store i64 %65, ptr %14, align 8, !tbaa !3
  br label %49, !llvm.loop !408

66:                                               ; preds = %49
  store i32 0, ptr %13, align 4
  br label %67

67:                                               ; preds = %66, %61
  call void @llvm.lifetime.end.p0(i64 8, ptr %14) #15
  %68 = load i32, ptr %13, align 4
  switch i32 %68, label %74 [
    i32 0, label %69
  ]

69:                                               ; preds = %67
  br label %70

70:                                               ; preds = %69
  %71 = load i64, ptr %12, align 8, !tbaa !3
  %72 = add i64 %71, 32
  store i64 %72, ptr %12, align 8, !tbaa !3
  br label %44, !llvm.loop !409

73:                                               ; preds = %44
  store i32 1, ptr %3, align 4
  store i32 1, ptr %13, align 4
  br label %74

74:                                               ; preds = %73, %67, %41, %26
  call void @llvm.lifetime.end.p0(i64 8, ptr %12) #15
  call void @llvm.lifetime.end.p0(i64 8, ptr %11) #15
  call void @llvm.lifetime.end.p0(i64 8, ptr %10) #15
  call void @llvm.lifetime.end.p0(i64 8, ptr %9) #15
  call void @llvm.lifetime.end.p0(i64 8, ptr %8) #15
  call void @llvm.lifetime.end.p0(i64 1, ptr %7) #15
  call void @llvm.lifetime.end.p0(i64 8, ptr %6) #15
  %75 = load i32, ptr %3, align 4
  ret i32 %75
}