; Function Attrs: nofree norecurse nosync nounwind memory(argmem: read) uwtable
define internal fastcc range(i32 0, 2) i32 @ZSTD_isRLE(ptr noundef %0, i64 noundef %1) unnamed_addr #21 {
  %3 = load i8, ptr %0, align 1, !tbaa !194
  %4 = zext i8 %3 to i64
  %5 = mul nuw i64 %4, 72340172838076673
  %6 = and i64 %1, 31
  %7 = icmp eq i64 %1, 1
  br i1 %7, label %.loopexit, label %8

8:                                                ; preds = %2
  %.not = icmp eq i64 %6, 0
  br i1 %.not, label %52, label %9

9:                                                ; preds = %8
  %10 = getelementptr inbounds nuw i8, ptr %0, i64 1
  %.ptr = getelementptr i8, ptr %0, i64 %6
  %.ptr30 = getelementptr i8, ptr %.ptr, i64 -7
  %11 = icmp samesign ugt i64 %6, 8
  br i1 %11, label %12, label %.loopexit.i

12:                                               ; preds = %9
  %.val.i = load i64, ptr %0, align 1, !tbaa !117
  %.val60.i = load i64, ptr %10, align 1, !tbaa !117
  %.not.i = icmp eq i64 %.val.i, %.val60.i
  br i1 %.not.i, label %.preheader.i, label %13

13:                                               ; preds = %12
  %14 = xor i64 %.val60.i, %.val.i
  %15 = tail call range(i64 0, 65) i64 @llvm.cttz.i64(i64 range(i64 1, 0) %14, i1 true)
  %16 = lshr i64 %15, 3
  br label %ZSTD_count.exit

.preheader.i:                                     ; preds = %12, %18
  %.pn.i = phi ptr [ %.150.i, %18 ], [ %0, %12 ]
  %.pn67.i = phi ptr [ %.146.i, %18 ], [ %10, %12 ]
  %.146.i = getelementptr inbounds nuw i8, ptr %.pn67.i, i64 8
  %.150.i = getelementptr inbounds nuw i8, ptr %.pn.i, i64 8
  %17 = icmp ult ptr %.146.i, %.ptr30
  br i1 %17, label %18, label %.loopexit.i

18:                                               ; preds = %.preheader.i
  %.150.val.i = load i64, ptr %.150.i, align 1, !tbaa !117
  %.146.val.i = load i64, ptr %.146.i, align 1, !tbaa !117
  %.not59.i = icmp eq i64 %.150.val.i, %.146.val.i
  br i1 %.not59.i, label %.preheader.i, label %.thread63.i

.thread63.i:                                      ; preds = %18
  %19 = xor i64 %.146.val.i, %.150.val.i
  %20 = tail call range(i64 0, 65) i64 @llvm.cttz.i64(i64 range(i64 1, 0) %19, i1 true)
  %21 = lshr i64 %20, 3
  %22 = getelementptr inbounds nuw i8, ptr %.146.i, i64 %21
  %23 = ptrtoint ptr %22 to i64
  %24 = ptrtoint ptr %10 to i64
  %25 = sub i64 %23, %24
  br label %ZSTD_count.exit

.loopexit.i:                                      ; preds = %.preheader.i, %9
  %.049.i = phi ptr [ %0, %9 ], [ %.150.i, %.preheader.i ]
  %.045.i = phi ptr [ %10, %9 ], [ %.146.i, %.preheader.i ]
  %26 = getelementptr inbounds i8, ptr %.ptr, i64 -3
  %27 = icmp ult ptr %.045.i, %26
  br i1 %27, label %28, label %33

28:                                               ; preds = %.loopexit.i
  %.049.val.i = load i32, ptr %.049.i, align 1, !tbaa !48
  %.045.val.i = load i32, ptr %.045.i, align 1, !tbaa !48
  %29 = icmp eq i32 %.049.val.i, %.045.val.i
  br i1 %29, label %30, label %33

30:                                               ; preds = %28
  %31 = getelementptr inbounds nuw i8, ptr %.045.i, i64 4
  %32 = getelementptr inbounds nuw i8, ptr %.049.i, i64 4
  br label %33

33:                                               ; preds = %30, %28, %.loopexit.i
  %.352.i = phi ptr [ %32, %30 ], [ %.049.i, %28 ], [ %.049.i, %.loopexit.i ]
  %.348.i = phi ptr [ %31, %30 ], [ %.045.i, %28 ], [ %.045.i, %.loopexit.i ]
  %34 = getelementptr inbounds i8, ptr %.ptr, i64 -1
  %35 = icmp ult ptr %.348.i, %34
  br i1 %35, label %36, label %41

36:                                               ; preds = %33
  %.352.val.i = load i16, ptr %.352.i, align 1, !tbaa !230
  %.348.val.i = load i16, ptr %.348.i, align 1, !tbaa !230
  %37 = icmp eq i16 %.352.val.i, %.348.val.i
  br i1 %37, label %38, label %41

38:                                               ; preds = %36
  %39 = getelementptr inbounds nuw i8, ptr %.348.i, i64 2
  %40 = getelementptr inbounds nuw i8, ptr %.352.i, i64 2
  br label %41

41:                                               ; preds = %38, %36, %33
  %.453.i = phi ptr [ %40, %38 ], [ %.352.i, %36 ], [ %.352.i, %33 ]
  %.4.i = phi ptr [ %39, %38 ], [ %.348.i, %36 ], [ %.348.i, %33 ]
  %42 = icmp ult ptr %.4.i, %.ptr
  br i1 %42, label %43, label %47

43:                                               ; preds = %41
  %44 = load i8, ptr %.453.i, align 1, !tbaa !194
  %45 = load i8, ptr %.4.i, align 1, !tbaa !194
  %46 = icmp eq i8 %44, %45
  %spec.select.idx.i = zext i1 %46 to i64
  %spec.select.i = getelementptr inbounds nuw i8, ptr %.4.i, i64 %spec.select.idx.i
  br label %47

47:                                               ; preds = %43, %41
  %.5.i = phi ptr [ %.4.i, %41 ], [ %spec.select.i, %43 ]
  %48 = ptrtoint ptr %.5.i to i64
  %49 = ptrtoint ptr %10 to i64
  %50 = sub i64 %48, %49
  br label %ZSTD_count.exit

ZSTD_count.exit:                                  ; preds = %13, %.thread63.i, %47
  %.1.i = phi i64 [ %50, %47 ], [ %16, %13 ], [ %25, %.thread63.i ]
  %51 = add nsw i64 %6, -1
  %.not27 = icmp eq i64 %.1.i, %51
  br i1 %.not27, label %52, label %.loopexit

52:                                               ; preds = %ZSTD_count.exit, %8
  %.not2835 = icmp ult i64 %1, 32
  br i1 %.not2835, label %.loopexit, label %.preheader

.preheader:                                       ; preds = %52, %.critedge
  %.02336 = phi i64 [ %59, %.critedge ], [ %6, %52 ]
  %53 = getelementptr inbounds nuw i8, ptr %0, i64 %.02336
  br label %57

54:                                               ; preds = %57
  %55 = add nuw nsw i64 %.034, 8
  %56 = icmp samesign ugt i64 %.034, 23
  br i1 %56, label %.critedge, label %57, !llvm.loop !441

57:                                               ; preds = %.preheader, %54
  %.034 = phi i64 [ 0, %.preheader ], [ %55, %54 ]
  %58 = getelementptr inbounds nuw i8, ptr %53, i64 %.034
  %.val = load i64, ptr %58, align 1, !tbaa !117
  %.not29 = icmp eq i64 %.val, %5
  br i1 %.not29, label %54, label %.loopexit

.critedge:                                        ; preds = %54
  %59 = add i64 %.02336, 32
  %.not28 = icmp eq i64 %59, %1
  br i1 %.not28, label %.loopexit, label %.preheader, !llvm.loop !442

.loopexit:                                        ; preds = %.critedge, %57, %52, %ZSTD_count.exit, %2
  %.024 = phi i32 [ 1, %2 ], [ 0, %ZSTD_count.exit ], [ 1, %52 ], [ 0, %57 ], [ 1, %.critedge ]
  ret i32 %.024
}